; Function Attrs: nounwind uwtable
define range(i32 -20, 1) i32 @IDAComputeY(ptr noundef readonly captures(address_is_null) %0, ptr noundef %1, ptr noundef %2) local_unnamed_addr #0 {
  %4 = icmp eq ptr %0, null
  br i1 %4, label %5, label %6

5:                                                ; preds = %3
  tail call void (ptr, i32, i32, ptr, ptr, ptr, ...) @IDAProcessError(ptr noundef null, i32 noundef -20, i32 noundef 1633, ptr noundef nonnull @__func__.IDAComputeY, ptr noundef nonnull @.str, ptr noundef nonnull @.str.3)
  br label %9

6:                                                ; preds = %3
  %7 = getelementptr inbounds nuw i8, ptr %0, i64 408
  %8 = load ptr, ptr %7, align 8, !tbaa !72
  tail call void @N_VLinearSum(double noundef 1.000000e+00, ptr noundef %8, double noundef 1.000000e+00, ptr noundef %1, ptr noundef %2) #13
  br label %9

9:                                                ; preds = %6, %5
  %.0 = phi i32 [ -20, %5 ], [ 0, %6 ]
  ret i32 %.0
}